target datalayout = "e-m:e-p270:32:32-p271:32:32-p272:64:64-i64:64-i128:128-f80:128-n8:16:32:64-S128"
target triple = "x86_64-pc-linux-gnu"

%struct.Qureg = type { i32, i32, i32, i64, i64, i32, i32, %struct.ComplexArray, %struct.ComplexArray, %struct.ComplexArray, ptr, ptr, ptr, ptr, ptr, ptr }
%struct.ComplexArray = type { ptr, ptr }

@__func__.multiControlledMultiRotateZ = private unnamed_addr constant [28 x i8] c"multiControlledMultiRotateZ\00", align 1
@.str.9 = private unnamed_addr constant [112 x i8] c"Here a %d-control %d-target multiControlledMultiRotateZ of angle %.14g was performed (QASM not yet implemented)\00", align 1

; Function Attrs: nounwind uwtable
define void @multiControlledMultiRotateZ(ptr noundef byval(%struct.Qureg) align 8 %0, ptr noundef %1, i32 noundef %2, ptr noundef %3, i32 noundef %4, double noundef %5) #0 {
  %7 = alloca ptr, align 8
  %8 = alloca i32, align 4
  %9 = alloca ptr, align 8
  %10 = alloca i32, align 4
  %11 = alloca double, align 8
  %12 = alloca i64, align 8
  %13 = alloca i64, align 8
  %14 = alloca i32, align 4
  store ptr %1, ptr %7, align 8, !tbaa !27
  store i32 %2, ptr %8, align 4, !tbaa !4
  store ptr %3, ptr %9, align 8, !tbaa !27
  store i32 %4, ptr %10, align 4, !tbaa !4
  store double %5, ptr %11, align 8, !tbaa !25
  %15 = load ptr, ptr %7, align 8, !tbaa !27
  %16 = load i32, ptr %8, align 4, !tbaa !4
  %17 = load ptr, ptr %9, align 8, !tbaa !27
  %18 = load i32, ptr %10, align 4, !tbaa !4
  call void @validateMultiControlsMultiTargets(ptr noundef byval(%struct.Qureg) align 8 %0, ptr noundef %15, i32 noundef %16, ptr noundef %17, i32 noundef %18, ptr noundef @__func__.multiControlledMultiRotateZ)
  call void @llvm.lifetime.start.p0(i64 8, ptr %12) #7
  %19 = load ptr, ptr %7, align 8, !tbaa !27
  %20 = load i32, ptr %8, align 4, !tbaa !4
  %21 = call i64 @getQubitBitMask(ptr noundef %19, i32 noundef %20)
  store i64 %21, ptr %12, align 8, !tbaa !22
  call void @llvm.lifetime.start.p0(i64 8, ptr %13) #7
  %22 = load ptr, ptr %9, align 8, !tbaa !27
  %23 = load i32, ptr %10, align 4, !tbaa !4
  %24 = call i64 @getQubitBitMask(ptr noundef %22, i32 noundef %23)
  store i64 %24, ptr %13, align 8, !tbaa !22
  %25 = load i64, ptr %12, align 8, !tbaa !22
  %26 = load i64, ptr %13, align 8, !tbaa !22
  %27 = load double, ptr %11, align 8, !tbaa !25
  call void @statevec_multiControlledMultiRotateZ(ptr noundef byval(%struct.Qureg) align 8 %0, i64 noundef %25, i64 noundef %26, double noundef %27)
  %28 = getelementptr inbounds nuw %struct.Qureg, ptr %0, i32 0, i32 0
  %29 = load i32, ptr %28, align 8, !tbaa !13
  %30 = icmp ne i32 %29, 0
  br i1 %30, label %31, label %44

31:                                               ; preds = %6
  call void @llvm.lifetime.start.p0(i64 4, ptr %14) #7
  %32 = getelementptr inbounds nuw %struct.Qureg, ptr %0, i32 0, i32 1
  %33 = load i32, ptr %32, align 4, !tbaa !18
  store i32 %33, ptr %14, align 4, !tbaa !4
  %34 = load i64, ptr %12, align 8, !tbaa !22
  %35 = load i32, ptr %14, align 4, !tbaa !4
  %36 = zext i32 %35 to i64
  %37 = shl i64 %34, %36
  %38 = load i64, ptr %13, align 8, !tbaa !22
  %39 = load i32, ptr %14, align 4, !tbaa !4
  %40 = zext i32 %39 to i64
  %41 = shl i64 %38, %40
  %42 = load double, ptr %11, align 8, !tbaa !25
  %43 = fneg double %42
  call void @statevec_multiControlledMultiRotateZ(ptr noundef byval(%struct.Qureg) align 8 %0, i64 noundef %37, i64 noundef %41, double noundef %43)
  call void @llvm.lifetime.end.p0(i64 4, ptr %14) #7
  br label %44

44:                                               ; preds = %31, %6
  %45 = load i32, ptr %8, align 4, !tbaa !4
  %46 = load i32, ptr %10, align 4, !tbaa !4
  %47 = load double, ptr %11, align 8, !tbaa !25
  call void (ptr, ptr, ...) @qasm_recordComment(ptr noundef byval(%struct.Qureg) align 8 %0, ptr noundef @.str.9, i32 noundef %45, i32 noundef %46, double noundef %47)
  call void @llvm.lifetime.end.p0(i64 8, ptr %13) #7
  call void @llvm.lifetime.end.p0(i64 8, ptr %12) #7
  ret void
}