; Function Attrs: nounwind uwtable
define void @multiControlledMultiRotateZ(ptr noundef readonly byval(%struct.Qureg) align 8 captures(none) %0, ptr noundef %1, i32 noundef %2, ptr noundef %3, i32 noundef %4, double noundef %5) local_unnamed_addr #0 {
  tail call void @validateMultiControlsMultiTargets(ptr noundef nonnull byval(%struct.Qureg) align 8 %0, ptr noundef %1, i32 noundef %2, ptr noundef %3, i32 noundef %4, ptr noundef nonnull @__func__.multiControlledMultiRotateZ) #17
  %7 = tail call i64 @getQubitBitMask(ptr noundef %1, i32 noundef %2) #17
  %8 = tail call i64 @getQubitBitMask(ptr noundef %3, i32 noundef %4) #17
  tail call void @statevec_multiControlledMultiRotateZ(ptr noundef nonnull byval(%struct.Qureg) align 8 %0, i64 noundef %7, i64 noundef %8, double noundef %5) #17
  %9 = load i32, ptr %0, align 8, !tbaa !12
  %.not = icmp eq i32 %9, 0
  br i1 %.not, label %17, label %10

10:                                               ; preds = %6
  %11 = getelementptr inbounds nuw i8, ptr %0, i64 4
  %12 = load i32, ptr %11, align 4, !tbaa !17
  %13 = zext i32 %12 to i64
  %14 = shl i64 %7, %13
  %15 = shl i64 %8, %13
  %16 = fneg double %5
  tail call void @statevec_multiControlledMultiRotateZ(ptr noundef nonnull byval(%struct.Qureg) align 8 %0, i64 noundef %14, i64 noundef %15, double noundef %16) #17
  br label %17

17:                                               ; preds = %10, %6
  tail call void (ptr, ptr, ...) @qasm_recordComment(ptr noundef nonnull byval(%struct.Qureg) align 8 %0, ptr noundef nonnull @.str.9, i32 noundef %2, i32 noundef %4, double noundef %5) #17
  ret void
}